target datalayout = "e-m:e-p270:32:32-p271:32:32-p272:64:64-i64:64-i128:128-f80:128-n8:16:32:64-S128"
target triple = "x86_64-pc-linux-gnu"

%"class.cv::utils::trace::details::Region" = type <{ ptr, i32, [4 x i8] }>
%"class.std::__cxx11::basic_string" = type { %"struct.std::__cxx11::basic_string<char>::_Alloc_hider", i64, %union.anon }
%"struct.std::__cxx11::basic_string<char>::_Alloc_hider" = type { ptr }
%union.anon = type { i64, [8 x i8] }

@__func__._ZN2cv3hal12cpu_baseline19cvtTwoPlaneYUVtoBGREPKhmS3_mPhmiiibi = private unnamed_addr constant [20 x i8] c"cvtTwoPlaneYUVtoBGR\00", align 1
@.str.11 = private unnamed_addr constant [134 x i8] c"generated/home/dtcxzyw/WorkSpace/Projects/compilers/llvm-opt-benchmark/bench/opencv/opencv/modules/imgproc/src/color_yuv.dispatch.cpp\00", align 1
@.str.19 = private unnamed_addr constant [95 x i8] c"HAL implementation cvtTwoPlaneYUVtoBGREx ==> hal_ni_cvtTwoPlaneYUVtoBGREx returned %d (0x%08x)\00", align 1

; Function Attrs: mustprogress nounwind uwtable
define linkonce_odr hidden noundef i32 @_Z28hal_ni_cvtTwoPlaneYUVtoBGRExPKhmS0_mPhmiiibi(ptr noundef %0, i64 noundef %1, ptr noundef %2, i64 noundef %3, ptr noundef %4, i64 noundef %5, i32 noundef %6, i32 noundef %7, i32 noundef %8, i1 noundef zeroext %9, i32 noundef %10) #2 comdat {
  %12 = alloca ptr, align 8
  %13 = alloca i64, align 8
  %14 = alloca ptr, align 8
  %15 = alloca i64, align 8
  %16 = alloca ptr, align 8
  %17 = alloca i64, align 8
  %18 = alloca i32, align 4
  %19 = alloca i32, align 4
  %20 = alloca i32, align 4
  %21 = alloca i8, align 1
  %22 = alloca i32, align 4
  store ptr %0, ptr %12, align 8
  store i64 %1, ptr %13, align 8
  store ptr %2, ptr %14, align 8
  store i64 %3, ptr %15, align 8
  store ptr %4, ptr %16, align 8
  store i64 %5, ptr %17, align 8
  store i32 %6, ptr %18, align 4
  store i32 %7, ptr %19, align 4
  store i32 %8, ptr %20, align 4
  %23 = zext i1 %9 to i8
  store i8 %23, ptr %21, align 1
  store i32 %10, ptr %22, align 4
  ret i32 1
}

; Function Attrs: mustprogress uwtable
define void @_ZN2cv3hal19cvtTwoPlaneYUVtoBGREPKhmS2_mPhmiiibi(ptr noundef %0, i64 noundef %1, ptr noundef %2, i64 noundef %3, ptr noundef %4, i64 noundef %5, i32 noundef %6, i32 noundef %7, i32 noundef %8, i1 noundef zeroext %9, i32 noundef %10) #0 personality ptr @__gxx_personality_v0 {
  %12 = alloca ptr, align 8
  %13 = alloca i64, align 8
  %14 = alloca ptr, align 8
  %15 = alloca i64, align 8
  %16 = alloca ptr, align 8
  %17 = alloca i64, align 8
  %18 = alloca i32, align 4
  %19 = alloca i32, align 4
  %20 = alloca i32, align 4
  %21 = alloca i8, align 1
  %22 = alloca i32, align 4
  %23 = alloca %"class.cv::utils::trace::details::Region", align 8
  %24 = alloca i32, align 4
  %25 = alloca ptr, align 8
  %26 = alloca i32, align 4
  %27 = alloca i32, align 4
  %28 = alloca %"class.std::__cxx11::basic_string", align 8
  store ptr %0, ptr %12, align 8
  store i64 %1, ptr %13, align 8
  store ptr %2, ptr %14, align 8
  store i64 %3, ptr %15, align 8
  store ptr %4, ptr %16, align 8
  store i64 %5, ptr %17, align 8
  store i32 %6, ptr %18, align 4
  store i32 %7, ptr %19, align 4
  store i32 %8, ptr %20, align 4
  %29 = zext i1 %9 to i8
  store i8 %29, ptr %21, align 1
  store i32 %10, ptr %22, align 4
  call void @_ZN2cv5utils5trace7details6RegionC1ERKNS3_21LocationStaticStorageE(ptr noundef nonnull align 8 dereferenceable(12) %23, ptr noundef nonnull align 8 dereferenceable(32) @_ZZN2cv3hal19cvtTwoPlaneYUVtoBGREPKhmS2_mPhmiiibiE25__cv_trace_location_fn156)
  %30 = load ptr, ptr %12, align 8
  %31 = load i64, ptr %13, align 8
  %32 = load ptr, ptr %14, align 8
  %33 = load i64, ptr %15, align 8
  %34 = load ptr, ptr %16, align 8
  %35 = load i64, ptr %17, align 8
  %36 = load i32, ptr %18, align 4
  %37 = load i32, ptr %19, align 4
  %38 = load i32, ptr %20, align 4
  %39 = load i8, ptr %21, align 1
  %40 = trunc i8 %39 to i1
  %41 = load i32, ptr %22, align 4
  %42 = invoke noundef i32 @_Z28hal_ni_cvtTwoPlaneYUVtoBGRExPKhmS0_mPhmiiibi(ptr noundef %30, i64 noundef %31, ptr noundef %32, i64 noundef %33, ptr noundef %34, i64 noundef %35, i32 noundef %36, i32 noundef %37, i32 noundef %38, i1 noundef zeroext %40, i32 noundef %41)
          to label %43 unwind label %47

43:                                               ; preds = %11
  store i32 %42, ptr %24, align 4
  %44 = load i32, ptr %24, align 4
  %45 = icmp eq i32 %44, 0
  br i1 %45, label %46, label %51

46:                                               ; preds = %43
  store i32 1, ptr %27, align 4
  br label %78

47:                                               ; preds = %64, %54, %11
  %48 = landingpad { ptr, i32 }
          cleanup
  %49 = extractvalue { ptr, i32 } %48, 0
  store ptr %49, ptr %25, align 8
  %50 = extractvalue { ptr, i32 } %48, 1
  store i32 %50, ptr %26, align 4
  br label %79

51:                                               ; preds = %43
  %52 = load i32, ptr %24, align 4
  %53 = icmp ne i32 %52, 1
  br i1 %53, label %54, label %63

54:                                               ; preds = %51
  %55 = load i32, ptr %24, align 4
  %56 = load i32, ptr %24, align 4
  invoke void (ptr, ptr, ...) @_ZN2cv6formatB5cxx11EPKcz(ptr dead_on_unwind writable sret(%"class.std::__cxx11::basic_string") align 8 %28, ptr noundef @.str.19, i32 noundef %55, i32 noundef %56)
          to label %57 unwind label %47

57:                                               ; preds = %54
  invoke void @_ZN2cv5errorEiRKNSt7__cxx1112basic_stringIcSt11char_traitsIcESaIcEEEPKcS9_i(i32 noundef -3, ptr noundef nonnull align 8 dereferenceable(32) %28, ptr noundef @__func__._ZN2cv3hal12cpu_baseline19cvtTwoPlaneYUVtoBGREPKhmS3_mPhmiiibi, ptr noundef @.str.11, i32 noundef 159) #12
          to label %58 unwind label %59

58:                                               ; preds = %57
  unreachable

59:                                               ; preds = %57
  %60 = landingpad { ptr, i32 }
          cleanup
  %61 = extractvalue { ptr, i32 } %60, 0
  store ptr %61, ptr %25, align 8
  %62 = extractvalue { ptr, i32 } %60, 1
  store i32 %62, ptr %26, align 4
  call void @_ZNSt7__cxx1112basic_stringIcSt11char_traitsIcESaIcEED1Ev(ptr noundef nonnull align 8 dereferenceable(32) %28) #10
  br label %79

63:                                               ; preds = %51
  br label %64

64:                                               ; preds = %63
  %65 = load ptr, ptr %12, align 8
  %66 = load i64, ptr %13, align 8
  %67 = load ptr, ptr %14, align 8
  %68 = load i64, ptr %15, align 8
  %69 = load ptr, ptr %16, align 8
  %70 = load i64, ptr %17, align 8
  %71 = load i32, ptr %18, align 4
  %72 = load i32, ptr %19, align 4
  %73 = load i32, ptr %20, align 4
  %74 = load i8, ptr %21, align 1
  %75 = trunc i8 %74 to i1
  %76 = load i32, ptr %22, align 4
  invoke void @_ZN2cv3hal12cpu_baseline19cvtTwoPlaneYUVtoBGREPKhmS3_mPhmiiibi(ptr noundef %65, i64 noundef %66, ptr noundef %67, i64 noundef %68, ptr noundef %69, i64 noundef %70, i32 noundef %71, i32 noundef %72, i32 noundef %73, i1 noundef zeroext %75, i32 noundef %76)
          to label %77 unwind label %47

77:                                               ; preds = %64
  store i32 1, ptr %27, align 4
  br label %78

78:                                               ; preds = %77, %46
  call void @_ZN2cv5utils5trace7details6RegionD2Ev(ptr noundef nonnull align 8 dereferenceable(12) %23) #10
  ret void

79:                                               ; preds = %59, %47
  call void @_ZN2cv5utils5trace7details6RegionD2Ev(ptr noundef nonnull align 8 dereferenceable(12) %23) #10
  br label %80

80:                                               ; preds = %79
  %81 = load ptr, ptr %25, align 8
  %82 = load i32, ptr %26, align 4
  %83 = insertvalue { ptr, i32 } poison, ptr %81, 0
  %84 = insertvalue { ptr, i32 } %83, i32 %82, 1
  resume { ptr, i32 } %84
}