; Function Attrs: mustprogress uwtable
define void @_ZN2cv3hal19cvtTwoPlaneYUVtoBGREPKhmS2_mPhmiiibi(ptr noundef %0, i64 noundef %1, ptr noundef %2, i64 noundef %3, ptr noundef %4, i64 noundef %5, i32 noundef %6, i32 noundef %7, i32 noundef %8, i1 noundef zeroext %9, i32 noundef %10) local_unnamed_addr #0 personality ptr @__gxx_personality_v0 {
  %12 = alloca %"class.cv::utils::trace::details::Region", align 8
  call void @_ZN2cv5utils5trace7details6RegionC1ERKNS3_21LocationStaticStorageE(ptr noundef nonnull align 8 dereferenceable(12) %12, ptr noundef nonnull align 8 dereferenceable(32) @_ZZN2cv3hal19cvtTwoPlaneYUVtoBGREPKhmS2_mPhmiiibiE25__cv_trace_location_fn156)
  invoke void @_ZN2cv3hal12cpu_baseline19cvtTwoPlaneYUVtoBGREPKhmS3_mPhmiiibi(ptr noundef %0, i64 noundef %1, ptr noundef %2, i64 noundef %3, ptr noundef %4, i64 noundef %5, i32 noundef %6, i32 noundef %7, i32 noundef %8, i1 noundef zeroext %9, i32 noundef %10)
          to label %13 unwind label %20

13:                                               ; preds = %11
  %14 = getelementptr inbounds i8, ptr %12, i64 8
  %15 = load i32, ptr %14, align 8
  %.not.i = icmp eq i32 %15, 0
  br i1 %.not.i, label %_ZN2cv5utils5trace7details6RegionD2Ev.exit, label %16

16:                                               ; preds = %13
  invoke void @_ZN2cv5utils5trace7details6Region7destroyEv(ptr noundef nonnull align 8 dereferenceable(12) %12)
          to label %_ZN2cv5utils5trace7details6RegionD2Ev.exit unwind label %17

17:                                               ; preds = %16
  %18 = landingpad { ptr, i32 }
          catch ptr null
  %19 = extractvalue { ptr, i32 } %18, 0
  call void @__clang_call_terminate(ptr %19) #13
  unreachable

_ZN2cv5utils5trace7details6RegionD2Ev.exit:       ; preds = %13, %16
  ret void

20:                                               ; preds = %11
  %21 = landingpad { ptr, i32 }
          cleanup
  call void @_ZN2cv5utils5trace7details6RegionD2Ev(ptr noundef nonnull align 8 dereferenceable(12) %12) #12
  resume { ptr, i32 } %21
}